; ModuleID = '15/2126.c'
source_filename = "15/2126.c"
target datalayout = "e-m:e-p270:32:32-p271:32:32-p272:64:64-i64:64-f80:128-n8:16:32:64-S128"
target triple = "x86_64-pc-linux-gnu"

@.str = private unnamed_addr constant [3 x i8] c"%d\00", align 1

; Function Attrs: noinline nounwind uwtable
define dso_local i32 @main() #0 {
  %1 = alloca i32, align 4
  %2 = alloca i32, align 4
  %3 = alloca i32, align 4
  %4 = alloca i32, align 4
  %5 = alloca i32, align 4
  %6 = alloca i32, align 4
  %7 = alloca i32, align 4
  store i32 0, i32* %1, align 4
  store i32 0, i32* %6, align 4
  store i32 0, i32* %7, align 4
  %8 = call i32 (i8*, ...) @__isoc99_scanf(i8* getelementptr inbounds ([3 x i8], [3 x i8]* @.str, i64 0, i64 0), i32* %2)
  store i32 1, i32* %3, align 4
  br label %9

9:                                                ; preds = %40, %0
  %10 = load i32, i32* %3, align 4
  %11 = load i32, i32* %2, align 4
  %12 = icmp sle i32 %10, %11
  br i1 %12, label %13, label %43

13:                                               ; preds = %9
  store i32 1, i32* %4, align 4
  br label %14

14:                                               ; preds = %36, %13
  %15 = load i32, i32* %4, align 4
  %16 = load i32, i32* %2, align 4
  %17 = icmp sle i32 %15, %16
  br i1 %17, label %18, label %39

18:                                               ; preds = %14
  %19 = call i32 (i8*, ...) @__isoc99_scanf(i8* getelementptr inbounds ([3 x i8], [3 x i8]* @.str, i64 0, i64 0), i32* %5)
  %20 = load i32, i32* %5, align 4
  %21 = icmp ne i32 %20, 0
  br i1 %21, label %35, label %22

22:                                               ; preds = %18
  %23 = load i32, i32* %7, align 4
  %24 = icmp ne i32 %23, 0
  br i1 %24, label %25, label %32

25:                                               ; preds = %22
  %26 = load i32, i32* %6, align 4
  %27 = load i32, i32* %4, align 4
  %28 = add nsw i32 %26, %27
  %29 = load i32, i32* %7, align 4
  %30 = sub nsw i32 %28, %29
  %31 = sub nsw i32 %30, 1
  store i32 %31, i32* %6, align 4
  store i32 0, i32* %7, align 4
  br label %34

32:                                               ; preds = %22
  %33 = load i32, i32* %4, align 4
  store i32 %33, i32* %7, align 4
  br label %34

34:                                               ; preds = %32, %25
  br label %35

35:                                               ; preds = %34, %18
  br label %36

36:                                               ; preds = %35
  %37 = load i32, i32* %4, align 4
  %38 = add nsw i32 %37, 1
  store i32 %38, i32* %4, align 4
  br label %14

39:                                               ; preds = %14
  store i32 0, i32* %7, align 4
  br label %40

40:                                               ; preds = %39
  %41 = load i32, i32* %3, align 4
  %42 = add nsw i32 %41, 1
  store i32 %42, i32* %3, align 4
  br label %9

43:                                               ; preds = %9
  %44 = load i32, i32* %6, align 4
  %45 = call i32 (i8*, ...) @printf(i8* getelementptr inbounds ([3 x i8], [3 x i8]* @.str, i64 0, i64 0), i32 %44)
  %46 = load i32, i32* %1, align 4
  ret i32 %46
}

declare dso_local i32 @__isoc99_scanf(i8*, ...) #1

declare dso_local i32 @printf(i8*, ...) #1


!llvm.module.flags = !{!0}
!llvm.ident = !{!1}

!0 = !{i32 1, !"wchar_size", i32 4}
!1 = !{!"clang version 10.0.0-4ubuntu1 "}
