; ModuleID = 'source-C-CXX/14/2126.c'
source_filename = "source-C-CXX/14/2126.c"
target datalayout = "e-m:e-p270:32:32-p271:32:32-p272:64:64-i64:64-f80:128-n8:16:32:64-S128"
target triple = "x86_64-pc-linux-gnu"

@.str = private unnamed_addr constant [3 x i8] c"%d\00", align 1

; Function Attrs: nofree nounwind sspstrong uwtable
define dso_local i32 @main() local_unnamed_addr #0 {
  %1 = alloca i32, align 4
  %2 = alloca i32, align 4
  %3 = bitcast i32* %1 to i8*
  call void @llvm.lifetime.start.p0i8(i64 4, i8* nonnull %3) #3
  %4 = bitcast i32* %2 to i8*
  call void @llvm.lifetime.start.p0i8(i64 4, i8* nonnull %4) #3
  %5 = call i32 (i8*, ...) @__isoc99_scanf(i8* getelementptr inbounds ([3 x i8], [3 x i8]* @.str, i64 0, i64 0), i32* nonnull %1)
  %6 = load i32, i32* %1, align 4, !tbaa !5
  %7 = icmp slt i32 %6, 1
  br i1 %7, label %37, label %8

8:                                                ; preds = %0, %32
  %9 = phi i32 [ %33, %32 ], [ %6, %0 ]
  %10 = phi i32 [ %34, %32 ], [ 0, %0 ]
  %11 = phi i32 [ %35, %32 ], [ 1, %0 ]
  %12 = icmp slt i32 %9, 1
  br i1 %12, label %32, label %13

13:                                               ; preds = %8, %26
  %14 = phi i32 [ %28, %26 ], [ 0, %8 ]
  %15 = phi i32 [ %27, %26 ], [ %10, %8 ]
  %16 = phi i32 [ %29, %26 ], [ 1, %8 ]
  %17 = call i32 (i8*, ...) @__isoc99_scanf(i8* getelementptr inbounds ([3 x i8], [3 x i8]* @.str, i64 0, i64 0), i32* nonnull %2)
  %18 = load i32, i32* %2, align 4, !tbaa !5
  %19 = icmp eq i32 %18, 0
  br i1 %19, label %20, label %26

20:                                               ; preds = %13
  %21 = icmp eq i32 %14, 0
  br i1 %21, label %26, label %22

22:                                               ; preds = %20
  %23 = add nsw i32 %15, %16
  %24 = xor i32 %14, -1
  %25 = add i32 %23, %24
  br label %26

26:                                               ; preds = %20, %13, %22
  %27 = phi i32 [ %15, %13 ], [ %25, %22 ], [ %15, %20 ]
  %28 = phi i32 [ %14, %13 ], [ 0, %22 ], [ %16, %20 ]
  %29 = add nuw nsw i32 %16, 1
  %30 = load i32, i32* %1, align 4, !tbaa !5
  %31 = icmp slt i32 %16, %30
  br i1 %31, label %13, label %32, !llvm.loop !9

32:                                               ; preds = %26, %8
  %33 = phi i32 [ %9, %8 ], [ %30, %26 ]
  %34 = phi i32 [ %10, %8 ], [ %27, %26 ]
  %35 = add nuw nsw i32 %11, 1
  %36 = icmp slt i32 %11, %33
  br i1 %36, label %8, label %37, !llvm.loop !11

37:                                               ; preds = %32, %0
  %38 = phi i32 [ 0, %0 ], [ %34, %32 ]
  %39 = call i32 (i8*, ...) @printf(i8* nonnull dereferenceable(1) getelementptr inbounds ([3 x i8], [3 x i8]* @.str, i64 0, i64 0), i32 %38)
  call void @llvm.lifetime.end.p0i8(i64 4, i8* nonnull %4) #3
  call void @llvm.lifetime.end.p0i8(i64 4, i8* nonnull %3) #3
  ret i32 0
}

; Function Attrs: argmemonly mustprogress nofree nosync nounwind willreturn
declare void @llvm.lifetime.start.p0i8(i64 immarg, i8* nocapture) #1

; Function Attrs: nofree nounwind
declare noundef i32 @__isoc99_scanf(i8* nocapture noundef readonly, ...) local_unnamed_addr #2

; Function Attrs: nofree nounwind
declare noundef i32 @printf(i8* nocapture noundef readonly, ...) local_unnamed_addr #2

; Function Attrs: argmemonly mustprogress nofree nosync nounwind willreturn
declare void @llvm.lifetime.end.p0i8(i64 immarg, i8* nocapture) #1


!llvm.module.flags = !{!0, !1, !2, !3}
!llvm.ident = !{!4}

!0 = !{i32 1, !"wchar_size", i32 4}
!1 = !{i32 7, !"PIC Level", i32 2}
!2 = !{i32 7, !"PIE Level", i32 2}
!3 = !{i32 7, !"uwtable", i32 1}
!4 = !{!"clang version 13.0.0"}
!5 = !{!6, !6, i64 0}
!6 = !{!"int", !7, i64 0}
!7 = !{!"omnipotent char", !8, i64 0}
!8 = !{!"Simple C/C++ TBAA"}
!9 = distinct !{!9, !10}
!10 = !{!"llvm.loop.mustprogress"}
!11 = distinct !{!11, !10, !12}
!12 = !{!"llvm.loop.unswitch.partial.disable"}
